target datalayout = "e-m:e-p270:32:32-p271:32:32-p272:64:64-i64:64-i128:128-f80:128-n8:16:32:64-S128"
target triple = "x86_64-unknown-linux-gnu"

%struct.llama_context = type { %struct.llama_cparams, ptr, %struct.llama_kv_cache, %"class.std::mersenne_twister_engine", i8, i64, i64, i64, i64, i64, i32, i32, i32, %"class.std::vector.107", i8, %"class.std::vector.107", %"class.std::vector.112", %struct.llama_buffer, %struct.llama_buffer, ptr }
%struct.llama_cparams = type { i32, i32, i32, i32, float, float, i32, float, float, float, float, i8, i8 }
%struct.llama_kv_cache = type { i8, i32, i32, i32, i32, %"class.std::vector.97", %"class.std::vector.102", %"class.std::vector.102", ptr, %struct.llama_buffer }
%"class.std::vector.97" = type { %"struct.std::_Vector_base.98" }
%"struct.std::_Vector_base.98" = type { %"struct.std::_Vector_base<llama_kv_cell, std::allocator<llama_kv_cell>>::_Vector_impl" }
%"struct.std::_Vector_base<llama_kv_cell, std::allocator<llama_kv_cell>>::_Vector_impl" = type { %"struct.std::_Vector_base<llama_kv_cell, std::allocator<llama_kv_cell>>::_Vector_impl_data" }
%"struct.std::_Vector_base<llama_kv_cell, std::allocator<llama_kv_cell>>::_Vector_impl_data" = type { ptr, ptr, ptr }
%"class.std::vector.102" = type { %"struct.std::_Vector_base.103" }
%"struct.std::_Vector_base.103" = type { %"struct.std::_Vector_base<ggml_tensor *, std::allocator<ggml_tensor *>>::_Vector_impl" }
%"struct.std::_Vector_base<ggml_tensor *, std::allocator<ggml_tensor *>>::_Vector_impl" = type { %"struct.std::_Vector_base<ggml_tensor *, std::allocator<ggml_tensor *>>::_Vector_impl_data" }
%"struct.std::_Vector_base<ggml_tensor *, std::allocator<ggml_tensor *>>::_Vector_impl_data" = type { ptr, ptr, ptr }
%"class.std::mersenne_twister_engine" = type { [624 x i64], i64 }
%"class.std::vector.107" = type { %"struct.std::_Vector_base.108" }
%"struct.std::_Vector_base.108" = type { %"struct.std::_Vector_base<float, std::allocator<float>>::_Vector_impl" }
%"struct.std::_Vector_base<float, std::allocator<float>>::_Vector_impl" = type { %"struct.std::_Vector_base<float, std::allocator<float>>::_Vector_impl_data" }
%"struct.std::_Vector_base<float, std::allocator<float>>::_Vector_impl_data" = type { ptr, ptr, ptr }
%"class.std::vector.112" = type { %"struct.std::_Vector_base.113" }
%"struct.std::_Vector_base.113" = type { %"struct.std::_Vector_base<unsigned char, std::allocator<unsigned char>>::_Vector_impl" }
%"struct.std::_Vector_base<unsigned char, std::allocator<unsigned char>>::_Vector_impl" = type { %"struct.std::_Vector_base<unsigned char, std::allocator<unsigned char>>::_Vector_impl_data" }
%"struct.std::_Vector_base<unsigned char, std::allocator<unsigned char>>::_Vector_impl_data" = type { ptr, ptr, ptr }
%struct.llama_buffer = type <{ ptr, i64, i8, [7 x i8] }>
%struct.llama_beam_search_data = type { ptr, i64, i32, i32, %"class.std::vector.244", %"class.std::vector.244", i64, %"class.std::vector.249" }
%"class.std::vector.244" = type { %"struct.std::_Vector_base.245" }
%"struct.std::_Vector_base.245" = type { %"struct.std::_Vector_base<llama_beam, std::allocator<llama_beam>>::_Vector_impl" }
%"struct.std::_Vector_base<llama_beam, std::allocator<llama_beam>>::_Vector_impl" = type { %"struct.std::_Vector_base<llama_beam, std::allocator<llama_beam>>::_Vector_impl_data" }
%"struct.std::_Vector_base<llama_beam, std::allocator<llama_beam>>::_Vector_impl_data" = type { ptr, ptr, ptr }
%"class.std::vector.249" = type { %"struct.std::_Vector_base.250" }
%"struct.std::_Vector_base.250" = type { %"struct.std::_Vector_base<llama_beam_view, std::allocator<llama_beam_view>>::_Vector_impl" }
%"struct.std::_Vector_base<llama_beam_view, std::allocator<llama_beam_view>>::_Vector_impl" = type { %"struct.std::_Vector_base<llama_beam_view, std::allocator<llama_beam_view>>::_Vector_impl_data" }
%"struct.std::_Vector_base<llama_beam_view, std::allocator<llama_beam_view>>::_Vector_impl_data" = type { ptr, ptr, ptr }

; Function Attrs: mustprogress uwtable
define void @llama_beam_search(ptr noundef %ctx, ptr noundef %callback, ptr noundef %callback_data, i64 noundef %n_beams, i32 noundef %n_past, i32 noundef %n_predict) #2 personality ptr @__gxx_personality_v0 {
entry:
  %ctx.addr = alloca ptr, align 8
  %callback.addr = alloca ptr, align 8
  %callback_data.addr = alloca ptr, align 8
  %n_beams.addr = alloca i64, align 8
  %n_past.addr = alloca i32, align 4
  %n_predict.addr = alloca i32, align 4
  %t_start_sample_us = alloca i64, align 8
  %beam_search_data = alloca %struct.llama_beam_search_data, align 8
  %exn.slot = alloca ptr, align 8
  %ehselector.slot = alloca i32, align 4
  store ptr %ctx, ptr %ctx.addr, align 8
  store ptr %callback, ptr %callback.addr, align 8
  store ptr %callback_data, ptr %callback_data.addr, align 8
  store i64 %n_beams, ptr %n_beams.addr, align 8
  store i32 %n_past, ptr %n_past.addr, align 4
  store i32 %n_predict, ptr %n_predict.addr, align 4
  %call = call i64 @ggml_time_us()
  store i64 %call, ptr %t_start_sample_us, align 8
  %0 = load ptr, ptr %ctx.addr, align 8
  %1 = load i64, ptr %n_beams.addr, align 8
  %2 = load i32, ptr %n_past.addr, align 4
  %3 = load i32, ptr %n_predict.addr, align 4
  call void @_ZN22llama_beam_search_dataC2EP13llama_contextmii(ptr noundef nonnull align 8 dereferenceable(104) %beam_search_data, ptr noundef %0, i64 noundef %1, i32 noundef %2, i32 noundef %3)
  %4 = load ptr, ptr %callback.addr, align 8
  %5 = load ptr, ptr %callback_data.addr, align 8
  invoke void @_ZN22llama_beam_search_data4loopEPFvPv17llama_beams_stateES0_(ptr noundef nonnull align 8 dereferenceable(104) %beam_search_data, ptr noundef %4, ptr noundef %5)
          to label %invoke.cont unwind label %lpad

invoke.cont:                                      ; preds = %entry
  %call2 = invoke i64 @ggml_time_us()
          to label %invoke.cont1 unwind label %lpad

invoke.cont1:                                     ; preds = %invoke.cont
  %6 = load i64, ptr %t_start_sample_us, align 8
  %sub = sub nsw i64 %call2, %6
  %7 = load ptr, ptr %ctx.addr, align 8
  %t_sample_us = getelementptr inbounds %struct.llama_context, ptr %7, i32 0, i32 7
  %8 = load i64, ptr %t_sample_us, align 8
  %add = add nsw i64 %8, %sub
  store i64 %add, ptr %t_sample_us, align 8
  %9 = load ptr, ptr %ctx.addr, align 8
  %n_sample = getelementptr inbounds %struct.llama_context, ptr %9, i32 0, i32 10
  %10 = load i32, ptr %n_sample, align 8
  %inc = add nsw i32 %10, 1
  store i32 %inc, ptr %n_sample, align 8
  call void @_ZN22llama_beam_search_dataD2Ev(ptr noundef nonnull align 8 dereferenceable(104) %beam_search_data) #3
  ret void

lpad:                                             ; preds = %invoke.cont, %entry
  %11 = landingpad { ptr, i32 }
          cleanup
  %12 = extractvalue { ptr, i32 } %11, 0
  store ptr %12, ptr %exn.slot, align 8
  %13 = extractvalue { ptr, i32 } %11, 1
  store i32 %13, ptr %ehselector.slot, align 4
  call void @_ZN22llama_beam_search_dataD2Ev(ptr noundef nonnull align 8 dereferenceable(104) %beam_search_data) #3
  br label %eh.resume

eh.resume:                                        ; preds = %lpad
  %exn = load ptr, ptr %exn.slot, align 8
  %sel = load i32, ptr %ehselector.slot, align 4
  %lpad.val = insertvalue { ptr, i32 } poison, ptr %exn, 0
  %lpad.val3 = insertvalue { ptr, i32 } %lpad.val, i32 %sel, 1
  resume { ptr, i32 } %lpad.val3
}