; Function Attrs: mustprogress uwtable
define void @llama_beam_search(ptr noundef %ctx, ptr noundef %callback, ptr noundef %callback_data, i64 noundef %n_beams, i32 noundef %n_past, i32 noundef %n_predict) local_unnamed_addr #2 personality ptr @__gxx_personality_v0 {
entry:
  %beam_search_data = alloca %struct.llama_beam_search_data, align 8
  %call = tail call i64 @ggml_time_us()
  call void @_ZN22llama_beam_search_dataC2EP13llama_contextmii(ptr noundef nonnull align 8 dereferenceable(104) %beam_search_data, ptr noundef %ctx, i64 noundef %n_beams, i32 noundef %n_past, i32 noundef %n_predict)
  invoke void @_ZN22llama_beam_search_data4loopEPFvPv17llama_beams_stateES0_(ptr noundef nonnull align 8 dereferenceable(104) %beam_search_data, ptr noundef %callback, ptr noundef %callback_data)
          to label %invoke.cont unwind label %lpad

invoke.cont:                                      ; preds = %entry
  %call2 = invoke i64 @ggml_time_us()
          to label %invoke.cont1 unwind label %lpad

invoke.cont1:                                     ; preds = %invoke.cont
  %sub = sub i64 %call2, %call
  %t_sample_us = getelementptr inbounds i8, ptr %ctx, i64 5208
  %0 = load i64, ptr %t_sample_us, align 8
  %add = add nsw i64 %sub, %0
  store i64 %add, ptr %t_sample_us, align 8
  %n_sample = getelementptr inbounds i8, ptr %ctx, i64 5232
  %1 = load i32, ptr %n_sample, align 8
  %inc = add nsw i32 %1, 1
  store i32 %inc, ptr %n_sample, align 8
  %beam_views.i = getelementptr inbounds i8, ptr %beam_search_data, i64 80
  %2 = load ptr, ptr %beam_views.i, align 8
  %tobool.not.i.i.i.i = icmp eq ptr %2, null
  br i1 %tobool.not.i.i.i.i, label %_ZNSt6vectorI15llama_beam_viewSaIS0_EED2Ev.exit.i, label %if.then.i.i.i.i

if.then.i.i.i.i:                                  ; preds = %invoke.cont1
  call void @_ZdlPv(ptr noundef nonnull %2) #42
  br label %_ZNSt6vectorI15llama_beam_viewSaIS0_EED2Ev.exit.i

_ZNSt6vectorI15llama_beam_viewSaIS0_EED2Ev.exit.i: ; preds = %if.then.i.i.i.i, %invoke.cont1
  %next_beams.i = getelementptr inbounds i8, ptr %beam_search_data, i64 48
  %3 = load ptr, ptr %next_beams.i, align 8
  %_M_finish.i.i = getelementptr inbounds i8, ptr %beam_search_data, i64 56
  %4 = load ptr, ptr %_M_finish.i.i, align 8
  %cmp.not3.i.i.i.i.i = icmp eq ptr %3, %4
  br i1 %cmp.not3.i.i.i.i.i, label %invoke.cont.i.i, label %for.body.i.i.i.i.i

for.body.i.i.i.i.i:                               ; preds = %_ZNSt6vectorI15llama_beam_viewSaIS0_EED2Ev.exit.i, %_ZSt8_DestroyI10llama_beamEvPT_.exit.i.i.i.i.i
  %__first.addr.04.i.i.i.i.i = phi ptr [ %incdec.ptr.i.i.i.i.i, %_ZSt8_DestroyI10llama_beamEvPT_.exit.i.i.i.i.i ], [ %3, %_ZNSt6vectorI15llama_beam_viewSaIS0_EED2Ev.exit.i ]
  %5 = load ptr, ptr %__first.addr.04.i.i.i.i.i, align 8
  %tobool.not.i.i.i.i.i.i.i.i.i.i = icmp eq ptr %5, null
  br i1 %tobool.not.i.i.i.i.i.i.i.i.i.i, label %_ZSt8_DestroyI10llama_beamEvPT_.exit.i.i.i.i.i, label %if.then.i.i.i.i.i.i.i.i.i.i

if.then.i.i.i.i.i.i.i.i.i.i:                      ; preds = %for.body.i.i.i.i.i
  call void @_ZdlPv(ptr noundef nonnull %5) #42
  br label %_ZSt8_DestroyI10llama_beamEvPT_.exit.i.i.i.i.i

_ZSt8_DestroyI10llama_beamEvPT_.exit.i.i.i.i.i:   ; preds = %if.then.i.i.i.i.i.i.i.i.i.i, %for.body.i.i.i.i.i
  %incdec.ptr.i.i.i.i.i = getelementptr inbounds i8, ptr %__first.addr.04.i.i.i.i.i, i64 32
  %cmp.not.i.i.i.i.i = icmp eq ptr %incdec.ptr.i.i.i.i.i, %4
  br i1 %cmp.not.i.i.i.i.i, label %invoke.contthread-pre-split.i.i, label %for.body.i.i.i.i.i, !llvm.loop !90

invoke.contthread-pre-split.i.i:                  ; preds = %_ZSt8_DestroyI10llama_beamEvPT_.exit.i.i.i.i.i
  %.pr.i.i = load ptr, ptr %next_beams.i, align 8
  br label %invoke.cont.i.i

invoke.cont.i.i:                                  ; preds = %invoke.contthread-pre-split.i.i, %_ZNSt6vectorI15llama_beam_viewSaIS0_EED2Ev.exit.i
  %6 = phi ptr [ %.pr.i.i, %invoke.contthread-pre-split.i.i ], [ %3, %_ZNSt6vectorI15llama_beam_viewSaIS0_EED2Ev.exit.i ]
  %tobool.not.i.i.i1.i = icmp eq ptr %6, null
  br i1 %tobool.not.i.i.i1.i, label %_ZNSt6vectorI10llama_beamSaIS0_EED2Ev.exit.i, label %if.then.i.i.i2.i

if.then.i.i.i2.i:                                 ; preds = %invoke.cont.i.i
  call void @_ZdlPv(ptr noundef nonnull %6) #42
  br label %_ZNSt6vectorI10llama_beamSaIS0_EED2Ev.exit.i

_ZNSt6vectorI10llama_beamSaIS0_EED2Ev.exit.i:     ; preds = %if.then.i.i.i2.i, %invoke.cont.i.i
  %beams.i = getelementptr inbounds i8, ptr %beam_search_data, i64 24
  %7 = load ptr, ptr %beams.i, align 8
  %_M_finish.i3.i = getelementptr inbounds i8, ptr %beam_search_data, i64 32
  %8 = load ptr, ptr %_M_finish.i3.i, align 8
  %cmp.not3.i.i.i.i4.i = icmp eq ptr %7, %8
  br i1 %cmp.not3.i.i.i.i4.i, label %invoke.cont.i14.i, label %for.body.i.i.i.i5.i

for.body.i.i.i.i5.i:                              ; preds = %_ZNSt6vectorI10llama_beamSaIS0_EED2Ev.exit.i, %_ZSt8_DestroyI10llama_beamEvPT_.exit.i.i.i.i9.i
  %__first.addr.04.i.i.i.i6.i = phi ptr [ %incdec.ptr.i.i.i.i10.i, %_ZSt8_DestroyI10llama_beamEvPT_.exit.i.i.i.i9.i ], [ %7, %_ZNSt6vectorI10llama_beamSaIS0_EED2Ev.exit.i ]
  %9 = load ptr, ptr %__first.addr.04.i.i.i.i6.i, align 8
  %tobool.not.i.i.i.i.i.i.i.i.i7.i = icmp eq ptr %9, null
  br i1 %tobool.not.i.i.i.i.i.i.i.i.i7.i, label %_ZSt8_DestroyI10llama_beamEvPT_.exit.i.i.i.i9.i, label %if.then.i.i.i.i.i.i.i.i.i8.i

if.then.i.i.i.i.i.i.i.i.i8.i:                     ; preds = %for.body.i.i.i.i5.i
  call void @_ZdlPv(ptr noundef nonnull %9) #42
  br label %_ZSt8_DestroyI10llama_beamEvPT_.exit.i.i.i.i9.i

_ZSt8_DestroyI10llama_beamEvPT_.exit.i.i.i.i9.i:  ; preds = %if.then.i.i.i.i.i.i.i.i.i8.i, %for.body.i.i.i.i5.i
  %incdec.ptr.i.i.i.i10.i = getelementptr inbounds i8, ptr %__first.addr.04.i.i.i.i6.i, i64 32
  %cmp.not.i.i.i.i11.i = icmp eq ptr %incdec.ptr.i.i.i.i10.i, %8
  br i1 %cmp.not.i.i.i.i11.i, label %invoke.contthread-pre-split.i12.i, label %for.body.i.i.i.i5.i, !llvm.loop !90

invoke.contthread-pre-split.i12.i:                ; preds = %_ZSt8_DestroyI10llama_beamEvPT_.exit.i.i.i.i9.i
  %.pr.i13.i = load ptr, ptr %beams.i, align 8
  br label %invoke.cont.i14.i

invoke.cont.i14.i:                                ; preds = %invoke.contthread-pre-split.i12.i, %_ZNSt6vectorI10llama_beamSaIS0_EED2Ev.exit.i
  %10 = phi ptr [ %.pr.i13.i, %invoke.contthread-pre-split.i12.i ], [ %7, %_ZNSt6vectorI10llama_beamSaIS0_EED2Ev.exit.i ]
  %tobool.not.i.i.i15.i = icmp eq ptr %10, null
  br i1 %tobool.not.i.i.i15.i, label %_ZN22llama_beam_search_dataD2Ev.exit, label %if.then.i.i.i16.i

if.then.i.i.i16.i:                                ; preds = %invoke.cont.i14.i
  call void @_ZdlPv(ptr noundef nonnull %10) #42
  br label %_ZN22llama_beam_search_dataD2Ev.exit

_ZN22llama_beam_search_dataD2Ev.exit:             ; preds = %invoke.cont.i14.i, %if.then.i.i.i16.i
  ret void

lpad:                                             ; preds = %invoke.cont, %entry
  %11 = landingpad { ptr, i32 }
          cleanup
  call void @_ZN22llama_beam_search_dataD2Ev(ptr noundef nonnull align 8 dereferenceable(104) %beam_search_data) #44
  resume { ptr, i32 } %11
}